; Function Attrs: mustprogress nofree norecurse nosync nounwind willreturn memory(read, inaccessiblemem: none) uwtable
define dso_local ptr @PyVectorcall_Function(ptr noundef readonly captures(none) %0) local_unnamed_addr #4 {
  %2 = getelementptr i8, ptr %0, i64 8
  %.val.i = load ptr, ptr %2, align 8, !tbaa !20
  %3 = getelementptr i8, ptr %.val.i, i64 168
  %.val6.i = load i64, ptr %3, align 8, !tbaa !34
  %4 = and i64 %.val6.i, 2048
  %.not.i = icmp eq i64 %4, 0
  br i1 %.not.i, label %_PyVectorcall_FunctionInline.exit, label %5

5:                                                ; preds = %1
  %6 = getelementptr inbounds nuw i8, ptr %.val.i, i64 56
  %7 = load i64, ptr %6, align 8, !tbaa !35
  %8 = getelementptr i8, ptr %0, i64 %7
  %.0.copyload.i = load ptr, ptr %8, align 1
  br label %_PyVectorcall_FunctionInline.exit

_PyVectorcall_FunctionInline.exit:                ; preds = %1, %5
  %.0.i = phi ptr [ %.0.copyload.i, %5 ], [ null, %1 ]
  ret ptr %.0.i
}